target datalayout = "e-m:e-p270:32:32-p271:32:32-p272:64:64-i64:64-i128:128-f80:128-n8:16:32:64-S128"
target triple = "x86_64-unknown-linux-gnu"

%"class.Assimp::Importer" = type { ptr }

; Function Attrs: mustprogress uwtable
define ptr @aiGetImportFormatDescription(i64 noundef %pIndex) #5 personality ptr @__gxx_personality_v0 {
entry:
  %pIndex.addr = alloca i64, align 8
  %ref.tmp = alloca %"class.Assimp::Importer", align 8
  %exn.slot = alloca ptr, align 8
  %ehselector.slot = alloca i32, align 4
  store i64 %pIndex, ptr %pIndex.addr, align 8
  call void @_ZN6Assimp8ImporterC1Ev(ptr noundef nonnull align 8 dereferenceable(8) %ref.tmp)
  %0 = load i64, ptr %pIndex.addr, align 8
  %call = invoke noundef ptr @_ZNK6Assimp8Importer15GetImporterInfoEm(ptr noundef nonnull align 8 dereferenceable(8) %ref.tmp, i64 noundef %0)
          to label %invoke.cont unwind label %lpad

invoke.cont:                                      ; preds = %entry
  call void @_ZN6Assimp8ImporterD1Ev(ptr noundef nonnull align 8 dereferenceable(8) %ref.tmp) #3
  ret ptr %call

lpad:                                             ; preds = %entry
  %1 = landingpad { ptr, i32 }
          cleanup
  %2 = extractvalue { ptr, i32 } %1, 0
  store ptr %2, ptr %exn.slot, align 8
  %3 = extractvalue { ptr, i32 } %1, 1
  store i32 %3, ptr %ehselector.slot, align 4
  call void @_ZN6Assimp8ImporterD1Ev(ptr noundef nonnull align 8 dereferenceable(8) %ref.tmp) #3
  br label %eh.resume

eh.resume:                                        ; preds = %lpad
  %exn = load ptr, ptr %exn.slot, align 8
  %sel = load i32, ptr %ehselector.slot, align 4
  %lpad.val = insertvalue { ptr, i32 } poison, ptr %exn, 0
  %lpad.val1 = insertvalue { ptr, i32 } %lpad.val, i32 %sel, 1
  resume { ptr, i32 } %lpad.val1
}