; Function Attrs: mustprogress uwtable
define noundef ptr @aiGetImportFormatDescription(i64 noundef %pIndex) local_unnamed_addr #3 personality ptr @__gxx_personality_v0 {
entry:
  %ref.tmp = alloca %"class.Assimp::Importer", align 8
  call void @_ZN6Assimp8ImporterC1Ev(ptr noundef nonnull align 8 dereferenceable(8) %ref.tmp)
  %call = invoke noundef ptr @_ZNK6Assimp8Importer15GetImporterInfoEm(ptr noundef nonnull align 8 dereferenceable(8) %ref.tmp, i64 noundef %pIndex)
          to label %invoke.cont unwind label %lpad

invoke.cont:                                      ; preds = %entry
  call void @_ZN6Assimp8ImporterD1Ev(ptr noundef nonnull align 8 dereferenceable(8) %ref.tmp) #44
  ret ptr %call

lpad:                                             ; preds = %entry
  %0 = landingpad { ptr, i32 }
          cleanup
  call void @_ZN6Assimp8ImporterD1Ev(ptr noundef nonnull align 8 dereferenceable(8) %ref.tmp) #44
  resume { ptr, i32 } %0
}